Certificate:
    Data:
        Version: 3 (0x2)
        Serial Number:
            2a:49:2b:c0:1a:64:ca:46:81:3b:8d:cf:13:fb:ca:e8:30:bf:ae:e1
        Signature Algorithm: sha256WithRSAEncryption
        Issuer: C=TW, ST=Taiwan, O=NTU CSIE, CN=ca.nasa.csie.ntu
        Validity
            Not Before: Apr 27 18:40:57 2024 GMT
            Not After : Apr 27 18:40:57 2027 GMT
        Subject: C=TW, ST=Taiwan, O=NTU CSIE, CN=ca.nasa.csie.ntu
        Subject Public Key Info:
            Public Key Algorithm: rsaEncryption
                Public-Key: (2048 bit)
                Modulus:
                    00:a6:7a:6f:40:7a:03:25:f1:f3:80:65:90:64:45:
                    65:18:61:49:0d:8f:a0:54:dc:55:64:1f:4e:fa:24:
                    5e:20:81:46:a7:d1:b4:b3:5d:d2:66:42:e2:87:1c:
                    38:c7:6d:ef:73:4b:d3:73:03:12:d4:5c:dd:a1:3d:
                    0c:a3:5a:19:5c:e5:89:cd:ce:d8:36:2b:2b:8d:15:
                    f6:b3:35:35:0c:d5:50:69:1b:6b:b2:cb:d8:84:6b:
                    46:8d:c3:93:ca:2e:3d:5d:8a:44:d6:7d:0d:d5:fc:
                    db:13:e5:0d:94:18:2e:cf:a9:98:89:dd:3b:04:c5:
                    8f:55:70:dc:0a:70:80:95:05:f9:47:b7:d8:75:7a:
                    29:0d:cb:31:bd:4c:9f:de:4b:12:05:1f:d0:0a:2a:
                    d1:3f:10:3b:73:84:2f:0b:0d:f3:71:65:a3:97:ce:
                    e1:9d:66:64:bf:40:e5:fe:0f:e7:2f:b4:18:42:71:
                    dc:7e:1c:96:de:cd:25:81:59:0e:a0:7e:6f:1d:e8:
                    7b:99:04:e6:61:2a:fa:55:3b:71:e6:f2:3a:f1:5c:
                    83:a2:95:70:85:c8:aa:73:2c:d0:5e:c4:a0:28:11:
                    65:d9:9e:96:9d:cf:b2:38:bd:3a:0c:3e:f4:3b:c9:
                    ca:ed:63:d8:54:8c:4f:0d:a9:30:b2:75:60:e0:2c:
                    bc:b3
                Exponent: 65537 (0x10001)
        X509v3 extensions:
            X509v3 Subject Key Identifier: 
                54:37:93:4B:4E:C0:AA:16:F5:43:12:74:5E:23:AE:CD:30:AC:51:C8
            X509v3 Authority Key Identifier: 
                54:37:93:4B:4E:C0:AA:16:F5:43:12:74:5E:23:AE:CD:30:AC:51:C8
            X509v3 Basic Constraints: critical
                CA:TRUE
    Signature Algorithm: sha256WithRSAEncryption
    Signature Value:
        6a:17:c5:1e:57:31:cf:48:1e:88:62:d3:22:6e:d8:ca:01:26:
        f6:34:45:c0:01:52:bd:1e:9d:18:c6:3a:ce:4b:20:96:d4:27:
        56:a1:e7:49:5d:68:17:6d:b9:48:6d:f1:73:b3:94:b8:12:06:
        44:a1:66:b5:fa:7a:79:ef:97:c8:5d:02:f0:1d:39:72:66:1f:
        65:4e:8c:e5:6b:8b:bd:e6:33:6b:f7:a0:4f:7f:de:36:7d:4d:
        33:76:4f:69:66:08:78:84:78:1f:c7:a8:eb:40:ae:9a:66:c8:
        7d:d3:4d:74:a7:9e:a9:6e:59:58:f2:9a:3f:48:64:dc:1f:ea:
        c9:2d:48:ea:0e:55:a8:16:62:dd:b9:2a:c8:ef:ca:65:f8:da:
        e0:bb:57:8d:87:54:38:31:1c:19:cf:75:3d:f6:44:ca:b4:a8:
        b0:d9:fc:ae:98:2a:11:fe:3c:2c:b2:16:c3:d3:d1:67:f0:7c:
        6e:8a:67:ee:ed:63:2e:a7:73:2c:7c:48:1f:63:be:c8:27:2b:
        63:01:ab:a9:2c:f5:19:aa:63:7b:92:52:ac:a3:8b:d7:f5:5f:
        25:ef:8f:3f:0b:95:dc:18:99:01:4a:15:76:a2:21:af:16:98:
        f9:0a:b7:98:fd:12:f2:54:83:15:80:f8:77:40:95:50:0b:59:
        3b:4c:f0:98
-----BEGIN CERTIFICATE-----
MIIDeTCCAmGgAwIBAgIUKkkrwBpkykaBO43PE/vK6DC/ruEwDQYJKoZIhvcNAQEL
BQAwTDELMAkGA1UEBhMCVFcxDzANBgNVBAgMBlRhaXdhbjERMA8GA1UECgwITlRV
IENTSUUxGTAXBgNVBAMMEGNhLm5hc2EuY3NpZS5udHUwHhcNMjQwNDI3MTg0MDU3
WhcNMjcwNDI3MTg0MDU3WjBMMQswCQYDVQQGEwJUVzEPMA0GA1UECAwGVGFpd2Fu
MREwDwYDVQQKDAhOVFUgQ1NJRTEZMBcGA1UEAwwQY2EubmFzYS5jc2llLm50dTCC
ASIwDQYJKoZIhvcNAQEBBQADggEPADCCAQoCggEBAKZ6b0B6AyXx84BlkGRFZRhh
SQ2PoFTcVWQfTvokXiCBRqfRtLNd0mZC4occOMdt73NL03MDEtRc3aE9DKNaGVzl
ic3O2DYrK40V9rM1NQzVUGkba7LL2IRrRo3Dk8ouPV2KRNZ9DdX82xPlDZQYLs+p
mIndOwTFj1Vw3ApwgJUF+Ue32HV6KQ3LMb1Mn95LEgUf0Aoq0T8QO3OELwsN83Fl
o5fO4Z1mZL9A5f4P5y+0GEJx3H4clt7NJYFZDqB+bx3oe5kE5mEq+lU7cebyOvFc
g6KVcIXIqnMs0F7EoCgRZdmelp3Psji9Ogw+9DvJyu1j2FSMTw2pMLJ1YOAsvLMC
AwEAAaNTMFEwHQYDVR0OBBYEFFQ3k0tOwKoW9UMSdF4jrs0wrFHIMB8GA1UdIwQY
MBaAFFQ3k0tOwKoW9UMSdF4jrs0wrFHIMA8GA1UdEwEB/wQFMAMBAf8wDQYJKoZI
hvcNAQELBQADggEBAGoXxR5XMc9IHohi0yJu2MoBJvY0RcABUr0enRjGOs5LIJbU
J1ah50ldaBdtuUht8XOzlLgSBkShZrX6ennvl8hdAvAdOXJmH2VOjOVri73mM2v3
oE9/3jZ9TTN2T2lmCHiEeB/HqOtArppmyH3TTXSnnqluWVjymj9IZNwf6sktSOoO
VagWYt25KsjvymX42uC7V42HVDgxHBnPdT32RMq0qLDZ/K6YKhH+PCyyFsPT0Wfw
fG6KZ+7tYy6ncyx8SB9jvsgnK2MBq6ks9RmqY3uSUqyji9f1XyXvjz8LldwYmQFK
FXaiIa8WmPkKt5j9EvJUgxWA+HdAlVALWTtM8Jg=
-----END CERTIFICATE-----
