Certificate:
    Data:
        Version: 3 (0x2)
        Serial Number:
            2a:49:2b:c0:1a:64:ca:46:81:3b:8d:cf:13:fb:ca:e8:30:bf:ae:e2
        Signature Algorithm: sha256WithRSAEncryption
        Issuer: C=TW, ST=Taiwan, O=NTU CSIE, CN=ca.nasa.csie.ntu
        Validity
            Not Before: Apr 27 18:41:40 2024 GMT
            Not After : Apr 27 18:41:40 2025 GMT
        Subject: C=TW, ST=Taiwan, O=NTU CSIE, CN=ldap1.nasa.csie.ntu
        Subject Public Key Info:
            Public Key Algorithm: rsaEncryption
                Public-Key: (2048 bit)
                Modulus:
                    00:cb:a9:dc:12:12:44:e0:5a:44:8b:87:d5:b8:9a:
                    dd:52:a0:86:dc:cd:20:bb:74:07:a4:87:9d:b3:91:
                    36:30:9b:62:03:1d:f1:2b:59:a6:4b:34:99:0d:33:
                    9b:47:c0:03:8b:74:9b:66:80:f6:9a:1e:bc:1b:38:
                    64:69:9e:9e:05:10:8c:b7:8d:8b:9f:f0:9e:5e:29:
                    d7:85:98:7d:fd:ab:e4:9c:34:71:a7:e3:3e:06:27:
                    f8:00:ec:fb:e2:24:f1:34:ce:ec:ef:bb:d3:b2:f3:
                    7a:76:df:33:bd:9a:de:89:19:05:81:8d:6b:44:e7:
                    da:da:66:05:c4:73:cf:48:5c:c4:e0:79:c6:d1:b9:
                    a7:7e:30:fa:25:f4:37:35:a2:fb:bd:b7:eb:25:60:
                    50:a1:9c:6b:75:a1:ad:bd:0b:31:3f:6d:97:96:c0:
                    b8:3d:d6:79:2b:ef:8c:09:33:1b:32:b4:02:9f:8c:
                    8b:22:52:06:32:b4:3d:8a:6f:48:ae:a3:f9:bc:25:
                    c7:58:bb:17:a3:70:a3:7f:69:2f:54:91:62:51:0f:
                    95:6a:19:fc:df:2e:d1:f3:c1:92:12:d3:1d:82:ea:
                    d4:7f:ca:bf:69:44:c8:af:d9:a5:f3:35:9f:5a:00:
                    3b:1e:49:ed:d3:ff:92:08:6e:8a:48:8a:5b:c2:b4:
                    23:19
                Exponent: 65537 (0x10001)
        X509v3 extensions:
            X509v3 Basic Constraints: 
                CA:FALSE
            X509v3 Subject Key Identifier: 
                00:96:5F:71:B0:A1:C6:B4:4F:A5:CA:F5:BB:75:60:31:07:3C:31:82
            X509v3 Authority Key Identifier: 
                54:37:93:4B:4E:C0:AA:16:F5:43:12:74:5E:23:AE:CD:30:AC:51:C8
    Signature Algorithm: sha256WithRSAEncryption
    Signature Value:
        81:1c:93:40:e7:0f:c3:ad:09:9d:b6:b0:21:7d:9c:36:84:d6:
        e4:e6:8d:97:a6:13:6f:e4:4a:aa:25:de:4f:88:05:d9:8f:33:
        90:fc:68:e4:19:e5:49:d3:6c:92:6e:60:8f:25:46:60:9f:27:
        d7:44:9c:6a:92:dd:04:f8:14:51:b7:05:52:0c:13:c2:42:db:
        09:bf:e5:32:4f:58:db:6b:8d:a9:1f:59:dc:8c:c2:13:14:44:
        0c:45:52:0a:c9:b1:04:73:12:77:1a:38:49:af:35:43:0e:48:
        3e:8f:68:98:1e:fa:44:33:78:92:47:9b:cf:c8:d3:84:35:4b:
        d3:77:c5:b6:32:b8:c5:e0:cb:50:21:cd:17:16:06:5c:a0:47:
        cc:8d:21:64:76:f8:8c:ac:8b:d9:41:40:90:75:fd:4b:cb:ec:
        27:aa:75:6f:7d:4c:98:79:11:2a:f2:4e:2f:45:99:ff:e5:89:
        79:c2:cf:f4:04:ad:87:23:4e:93:4d:9b:4c:98:fb:a0:0e:09:
        ef:e2:c1:85:ba:77:e9:67:9a:b2:8e:13:d2:bc:22:1c:d5:30:
        4c:97:4f:56:04:2f:e2:d6:89:8a:e6:d5:b5:ce:3c:34:5b:8f:
        77:7b:f3:79:e0:8b:97:e7:0a:a1:a1:32:03:6b:64:83:6e:43:
        07:7c:47:6c
-----BEGIN CERTIFICATE-----
MIIDdjCCAl6gAwIBAgIUKkkrwBpkykaBO43PE/vK6DC/ruIwDQYJKoZIhvcNAQEL
BQAwTDELMAkGA1UEBhMCVFcxDzANBgNVBAgMBlRhaXdhbjERMA8GA1UECgwITlRV
IENTSUUxGTAXBgNVBAMMEGNhLm5hc2EuY3NpZS5udHUwHhcNMjQwNDI3MTg0MTQw
WhcNMjUwNDI3MTg0MTQwWjBPMQswCQYDVQQGEwJUVzEPMA0GA1UECAwGVGFpd2Fu
MREwDwYDVQQKDAhOVFUgQ1NJRTEcMBoGA1UEAwwTbGRhcDEubmFzYS5jc2llLm50
dTCCASIwDQYJKoZIhvcNAQEBBQADggEPADCCAQoCggEBAMup3BISROBaRIuH1bia
3VKghtzNILt0B6SHnbORNjCbYgMd8StZpks0mQ0zm0fAA4t0m2aA9poevBs4ZGme
ngUQjLeNi5/wnl4p14WYff2r5Jw0cafjPgYn+ADs++Ik8TTO7O+707LzenbfM72a
3okZBYGNa0Tn2tpmBcRzz0hcxOB5xtG5p34w+iX0NzWi+7236yVgUKGca3Whrb0L
MT9tl5bAuD3WeSvvjAkzGzK0Ap+MiyJSBjK0PYpvSK6j+bwlx1i7F6Nwo39pL1SR
YlEPlWoZ/N8u0fPBkhLTHYLq1H/Kv2lEyK/ZpfM1n1oAOx5J7dP/kghuikiKW8K0
IxkCAwEAAaNNMEswCQYDVR0TBAIwADAdBgNVHQ4EFgQUAJZfcbChxrRPpcr1u3Vg
MQc8MYIwHwYDVR0jBBgwFoAUVDeTS07Aqhb1QxJ0XiOuzTCsUcgwDQYJKoZIhvcN
AQELBQADggEBAIEck0DnD8OtCZ22sCF9nDaE1uTmjZemE2/kSqol3k+IBdmPM5D8
aOQZ5UnTbJJuYI8lRmCfJ9dEnGqS3QT4FFG3BVIME8JC2wm/5TJPWNtrjakfWdyM
whMURAxFUgrJsQRzEncaOEmvNUMOSD6PaJge+kQzeJJHm8/I04Q1S9N3xbYyuMXg
y1AhzRcWBlygR8yNIWR2+Iysi9lBQJB1/UvL7CeqdW99TJh5ESryTi9Fmf/liXnC
z/QErYcjTpNNm0yY+6AOCe/iwYW6d+lnmrKOE9K8IhzVMEyXT1YEL+LWiYrm1bXO
PDRbj3d783ngi5fnCqGhMgNrZINuQwd8R2w=
-----END CERTIFICATE-----
