Certificate:
    Data:
        Version: 3 (0x2)
        Serial Number:
            2a:49:2b:c0:1a:64:ca:46:81:3b:8d:cf:13:fb:ca:e8:30:bf:ae:e3
        Signature Algorithm: sha256WithRSAEncryption
        Issuer: C=TW, ST=Taiwan, O=NTU CSIE, CN=ca.nasa.csie.ntu
        Validity
            Not Before: Apr 27 19:43:08 2024 GMT
            Not After : Apr 27 19:43:08 2025 GMT
        Subject: C=TW, ST=Taiwan, O=NTU CSIE, CN=ldap
        Subject Public Key Info:
            Public Key Algorithm: rsaEncryption
                Public-Key: (2048 bit)
                Modulus:
                    00:c2:94:dc:7b:19:7b:7d:fa:c1:c6:df:a2:aa:10:
                    a8:8a:42:f2:7e:70:71:f0:4d:3f:f7:e6:86:7d:87:
                    7b:f9:14:7d:0d:eb:49:9c:fb:d9:7a:15:e0:39:8a:
                    10:b1:20:cd:32:fc:02:42:c6:b9:50:27:dd:67:6c:
                    82:ea:0f:3d:b6:7f:9c:ad:35:98:17:a3:59:9a:29:
                    ed:eb:14:82:88:85:32:7d:b9:31:6f:de:1a:7c:e3:
                    5f:c3:68:4f:dd:41:92:fc:8c:0f:19:d4:95:10:97:
                    52:4a:3b:14:83:e4:45:e2:1f:74:15:48:b7:2f:96:
                    08:e6:74:00:bf:d7:a6:db:b5:a0:bb:97:a7:60:cb:
                    be:04:dc:93:1b:b2:29:e6:af:1c:11:b3:6e:9e:8d:
                    0f:ca:f8:45:17:60:64:b5:6e:27:1e:77:60:0e:00:
                    b3:75:4f:15:0d:84:6a:55:71:96:2f:4a:b4:9b:8f:
                    3b:e3:27:1c:22:37:5c:0a:7a:f8:18:eb:33:4d:01:
                    40:57:43:fb:2f:a7:fa:fa:e1:9e:71:71:9c:06:ef:
                    de:d4:34:b3:e7:5a:bb:0d:10:58:c9:00:42:d5:1f:
                    f0:05:8d:7b:d1:e9:48:93:e9:57:05:c6:59:72:b1:
                    03:3c:07:d2:1b:c4:2b:58:fd:04:2e:31:b8:38:72:
                    6d:77
                Exponent: 65537 (0x10001)
        X509v3 extensions:
            X509v3 Basic Constraints: 
                CA:FALSE
            X509v3 Subject Key Identifier: 
                56:48:59:6D:F1:53:E1:3D:19:40:5F:9B:52:BF:BA:CC:E6:E6:D3:D3
            X509v3 Authority Key Identifier: 
                54:37:93:4B:4E:C0:AA:16:F5:43:12:74:5E:23:AE:CD:30:AC:51:C8
    Signature Algorithm: sha256WithRSAEncryption
    Signature Value:
        22:63:ce:f5:d6:67:49:15:71:d5:cb:27:3c:1f:ab:36:4d:b7:
        6e:ba:1a:4b:00:f0:e7:cf:e3:9b:4b:48:38:ff:d6:3e:af:ca:
        3b:5f:33:d4:55:25:ea:5e:63:68:bf:7e:75:02:54:05:93:64:
        83:65:b1:38:9f:e1:7e:46:4b:71:13:e1:03:8e:cd:d7:b0:73:
        f4:ae:41:9b:d3:7f:d7:13:e4:a6:1e:e8:55:e5:0b:93:85:af:
        e4:17:a8:b7:5c:c1:fc:c9:53:8e:d1:d4:a6:2c:0b:05:8c:5a:
        10:8e:4e:bb:59:c5:1d:50:25:4d:27:6a:ab:8c:00:32:05:a9:
        28:b3:13:7d:f2:90:46:3a:91:b5:e2:0c:9c:28:5c:c4:7a:3f:
        12:a9:09:9c:bc:ae:76:b5:e1:4d:40:65:78:10:84:11:a8:53:
        d8:e0:f4:ee:86:b4:4d:f9:40:67:04:2a:63:39:8f:08:e9:6e:
        29:1b:f2:44:e2:c4:fb:15:30:c7:e8:03:f4:35:d9:04:d8:6f:
        e4:2e:69:02:d6:02:d6:dc:4d:63:48:21:3f:af:aa:73:59:32:
        28:41:70:ae:4d:36:14:5e:e0:1e:0a:c8:d4:e0:71:93:b7:56:
        65:61:54:be:a0:a7:d5:a5:74:af:3c:55:f5:47:3f:26:00:85:
        a1:85:4d:2d
-----BEGIN CERTIFICATE-----
MIIDZzCCAk+gAwIBAgIUKkkrwBpkykaBO43PE/vK6DC/ruMwDQYJKoZIhvcNAQEL
BQAwTDELMAkGA1UEBhMCVFcxDzANBgNVBAgMBlRhaXdhbjERMA8GA1UECgwITlRV
IENTSUUxGTAXBgNVBAMMEGNhLm5hc2EuY3NpZS5udHUwHhcNMjQwNDI3MTk0MzA4
WhcNMjUwNDI3MTk0MzA4WjBAMQswCQYDVQQGEwJUVzEPMA0GA1UECAwGVGFpd2Fu
MREwDwYDVQQKDAhOVFUgQ1NJRTENMAsGA1UEAwwEbGRhcDCCASIwDQYJKoZIhvcN
AQEBBQADggEPADCCAQoCggEBAMKU3HsZe336wcbfoqoQqIpC8n5wcfBNP/fmhn2H
e/kUfQ3rSZz72XoV4DmKELEgzTL8AkLGuVAn3WdsguoPPbZ/nK01mBejWZop7esU
goiFMn25MW/eGnzjX8NoT91BkvyMDxnUlRCXUko7FIPkReIfdBVIty+WCOZ0AL/X
ptu1oLuXp2DLvgTckxuyKeavHBGzbp6ND8r4RRdgZLVuJx53YA4As3VPFQ2EalVx
li9KtJuPO+MnHCI3XAp6+BjrM00BQFdD+y+n+vrhnnFxnAbv3tQ0s+dauw0QWMkA
QtUf8AWNe9HpSJPpVwXGWXKxAzwH0hvEK1j9BC4xuDhybXcCAwEAAaNNMEswCQYD
VR0TBAIwADAdBgNVHQ4EFgQUVkhZbfFT4T0ZQF+bUr+6zObm09MwHwYDVR0jBBgw
FoAUVDeTS07Aqhb1QxJ0XiOuzTCsUcgwDQYJKoZIhvcNAQELBQADggEBACJjzvXW
Z0kVcdXLJzwfqzZNt266GksA8OfP45tLSDj/1j6vyjtfM9RVJepeY2i/fnUCVAWT
ZINlsTif4X5GS3ET4QOOzdewc/SuQZvTf9cT5KYe6FXlC5OFr+QXqLdcwfzJU47R
1KYsCwWMWhCOTrtZxR1QJU0naquMADIFqSizE33ykEY6kbXiDJwoXMR6PxKpCZy8
rna14U1AZXgQhBGoU9jg9O6GtE35QGcEKmM5jwjpbikb8kTixPsVMMfoA/Q12QTY
b+QuaQLWAtbcTWNIIT+vqnNZMihBcK5NNhRe4B4KyNTgcZO3VmVhVL6gp9WldK88
VfVHPyYAhaGFTS0=
-----END CERTIFICATE-----
